target datalayout = "e-m:e-p270:32:32-p271:32:32-p272:64:64-i64:64-i128:128-f80:128-n8:16:32:64-S128"
target triple = "x86_64-pc-linux-gnu"

%struct.KDF_SCRYPT = type { ptr, ptr, ptr, i64, ptr, i64, i64, i64, i64, i64, ptr }
%struct.ossl_param_st = type { ptr, i32, ptr, i64, i64 }

@.str = private unnamed_addr constant [51 x i8] c"../openssl/providers/implementations/kdfs/scrypt.c\00", align 1
@.str.2 = private unnamed_addr constant [5 x i8] c"pass\00", align 1
@.str.3 = private unnamed_addr constant [5 x i8] c"salt\00", align 1
@.str.4 = private unnamed_addr constant [2 x i8] c"n\00", align 1
@.str.5 = private unnamed_addr constant [2 x i8] c"r\00", align 1
@.str.6 = private unnamed_addr constant [2 x i8] c"p\00", align 1
@.str.7 = private unnamed_addr constant [13 x i8] c"maxmem_bytes\00", align 1
@.str.8 = private unnamed_addr constant [11 x i8] c"properties\00", align 1

; Function Attrs: nounwind uwtable
define internal i32 @is_power_of_two(i64 noundef %0) #0 {
  %2 = alloca i64, align 8
  store i64 %0, ptr %2, align 8, !tbaa !24
  %3 = load i64, ptr %2, align 8, !tbaa !24
  %4 = icmp ne i64 %3, 0
  br i1 %4, label %5, label %11

5:                                                ; preds = %1
  %6 = load i64, ptr %2, align 8, !tbaa !24
  %7 = load i64, ptr %2, align 8, !tbaa !24
  %8 = sub i64 %7, 1
  %9 = and i64 %6, %8
  %10 = icmp eq i64 %9, 0
  br label %11

11:                                               ; preds = %5, %1
  %12 = phi i1 [ false, %1 ], [ %10, %5 ]
  %13 = zext i1 %12 to i32
  ret i32 %13
}

; Function Attrs: nounwind uwtable
define internal i32 @scrypt_set_membuf(ptr noundef %0, ptr noundef %1, ptr noundef %2) #0 {
  %4 = alloca i32, align 4
  %5 = alloca ptr, align 8
  %6 = alloca ptr, align 8
  %7 = alloca ptr, align 8
  store ptr %0, ptr %5, align 8, !tbaa !49
  store ptr %1, ptr %6, align 8, !tbaa !51
  store ptr %2, ptr %7, align 8, !tbaa !25
  %8 = load ptr, ptr %5, align 8, !tbaa !49
  %9 = load ptr, ptr %8, align 8, !tbaa !23
  %10 = load ptr, ptr %6, align 8, !tbaa !51
  %11 = load i64, ptr %10, align 8, !tbaa !24
  call void @CRYPTO_clear_free(ptr noundef %9, i64 noundef %11, ptr noundef @.str, i32 noundef 148)
  %12 = load ptr, ptr %5, align 8, !tbaa !49
  store ptr null, ptr %12, align 8, !tbaa !23
  %13 = load ptr, ptr %6, align 8, !tbaa !51
  store i64 0, ptr %13, align 8, !tbaa !24
  %14 = load ptr, ptr %7, align 8, !tbaa !25
  %15 = getelementptr inbounds nuw %struct.ossl_param_st, ptr %14, i32 0, i32 3
  %16 = load i64, ptr %15, align 8, !tbaa !53
  %17 = icmp eq i64 %16, 0
  br i1 %17, label %18, label %24

18:                                               ; preds = %3
  %19 = call noalias ptr @CRYPTO_malloc(i64 noundef 1, ptr noundef @.str, i32 noundef 153)
  %20 = load ptr, ptr %5, align 8, !tbaa !49
  store ptr %19, ptr %20, align 8, !tbaa !23
  %21 = icmp eq ptr %19, null
  br i1 %21, label %22, label %23

22:                                               ; preds = %18
  store i32 0, ptr %4, align 4
  br label %39

23:                                               ; preds = %18
  br label %38

24:                                               ; preds = %3
  %25 = load ptr, ptr %7, align 8, !tbaa !25
  %26 = getelementptr inbounds nuw %struct.ossl_param_st, ptr %25, i32 0, i32 2
  %27 = load ptr, ptr %26, align 8, !tbaa !30
  %28 = icmp ne ptr %27, null
  br i1 %28, label %29, label %37

29:                                               ; preds = %24
  %30 = load ptr, ptr %7, align 8, !tbaa !25
  %31 = load ptr, ptr %5, align 8, !tbaa !49
  %32 = load ptr, ptr %6, align 8, !tbaa !51
  %33 = call i32 @OSSL_PARAM_get_octet_string(ptr noundef %30, ptr noundef %31, i64 noundef 0, ptr noundef %32)
  %34 = icmp ne i32 %33, 0
  br i1 %34, label %36, label %35

35:                                               ; preds = %29
  store i32 0, ptr %4, align 4
  br label %39

36:                                               ; preds = %29
  br label %37

37:                                               ; preds = %36, %24
  br label %38

38:                                               ; preds = %37, %23
  store i32 1, ptr %4, align 4
  br label %39

39:                                               ; preds = %38, %35, %22
  %40 = load i32, ptr %4, align 4
  ret i32 %40
}

; Function Attrs: inlinehint nounwind uwtable
define internal i32 @ossl_param_is_empty(ptr noundef %0) #4 {
  %2 = alloca ptr, align 8
  store ptr %0, ptr %2, align 8, !tbaa !25
  %3 = load ptr, ptr %2, align 8, !tbaa !25
  %4 = icmp eq ptr %3, null
  br i1 %4, label %10, label %5

5:                                                ; preds = %1
  %6 = load ptr, ptr %2, align 8, !tbaa !25
  %7 = getelementptr inbounds nuw %struct.ossl_param_st, ptr %6, i32 0, i32 0
  %8 = load ptr, ptr %7, align 8, !tbaa !48
  %9 = icmp eq ptr %8, null
  br label %10

10:                                               ; preds = %5, %1
  %11 = phi i1 [ true, %1 ], [ %9, %5 ]
  %12 = zext i1 %11 to i32
  ret i32 %12
}

; Function Attrs: nounwind uwtable
define internal i32 @kdf_scrypt_set_ctx_params(ptr noundef %0, ptr noundef %1) #0 {
  %3 = alloca i32, align 4
  %4 = alloca ptr, align 8
  %5 = alloca ptr, align 8
  %6 = alloca ptr, align 8
  %7 = alloca ptr, align 8
  %8 = alloca i64, align 8
  %9 = alloca i32, align 4
  store ptr %0, ptr %4, align 8, !tbaa !3
  store ptr %1, ptr %5, align 8, !tbaa !25
  call void @llvm.lifetime.start.p0(i64 8, ptr %6) #5
  call void @llvm.lifetime.start.p0(i64 8, ptr %7) #5
  %10 = load ptr, ptr %4, align 8, !tbaa !3
  store ptr %10, ptr %7, align 8, !tbaa !3
  call void @llvm.lifetime.start.p0(i64 8, ptr %8) #5
  %11 = load ptr, ptr %5, align 8, !tbaa !25
  %12 = call i32 @ossl_param_is_empty(ptr noundef %11)
  %13 = icmp ne i32 %12, 0
  br i1 %13, label %14, label %15

14:                                               ; preds = %2
  store i32 1, ptr %3, align 4
  store i32 1, ptr %9, align 4
  br label %135

15:                                               ; preds = %2
  %16 = load ptr, ptr %5, align 8, !tbaa !25
  %17 = call ptr @OSSL_PARAM_locate_const(ptr noundef %16, ptr noundef @.str.2)
  store ptr %17, ptr %6, align 8, !tbaa !25
  %18 = icmp ne ptr %17, null
  br i1 %18, label %19, label %29

19:                                               ; preds = %15
  %20 = load ptr, ptr %7, align 8, !tbaa !3
  %21 = getelementptr inbounds nuw %struct.KDF_SCRYPT, ptr %20, i32 0, i32 2
  %22 = load ptr, ptr %7, align 8, !tbaa !3
  %23 = getelementptr inbounds nuw %struct.KDF_SCRYPT, ptr %22, i32 0, i32 3
  %24 = load ptr, ptr %6, align 8, !tbaa !25
  %25 = call i32 @scrypt_set_membuf(ptr noundef %21, ptr noundef %23, ptr noundef %24)
  %26 = icmp ne i32 %25, 0
  br i1 %26, label %28, label %27

27:                                               ; preds = %19
  store i32 0, ptr %3, align 4
  store i32 1, ptr %9, align 4
  br label %135

28:                                               ; preds = %19
  br label %29

29:                                               ; preds = %28, %15
  %30 = load ptr, ptr %5, align 8, !tbaa !25
  %31 = call ptr @OSSL_PARAM_locate_const(ptr noundef %30, ptr noundef @.str.3)
  store ptr %31, ptr %6, align 8, !tbaa !25
  %32 = icmp ne ptr %31, null
  br i1 %32, label %33, label %43

33:                                               ; preds = %29
  %34 = load ptr, ptr %7, align 8, !tbaa !3
  %35 = getelementptr inbounds nuw %struct.KDF_SCRYPT, ptr %34, i32 0, i32 4
  %36 = load ptr, ptr %7, align 8, !tbaa !3
  %37 = getelementptr inbounds nuw %struct.KDF_SCRYPT, ptr %36, i32 0, i32 5
  %38 = load ptr, ptr %6, align 8, !tbaa !25
  %39 = call i32 @scrypt_set_membuf(ptr noundef %35, ptr noundef %37, ptr noundef %38)
  %40 = icmp ne i32 %39, 0
  br i1 %40, label %42, label %41

41:                                               ; preds = %33
  store i32 0, ptr %3, align 4
  store i32 1, ptr %9, align 4
  br label %135

42:                                               ; preds = %33
  br label %43

43:                                               ; preds = %42, %29
  %44 = load ptr, ptr %5, align 8, !tbaa !25
  %45 = call ptr @OSSL_PARAM_locate_const(ptr noundef %44, ptr noundef @.str.4)
  store ptr %45, ptr %6, align 8, !tbaa !25
  %46 = icmp ne ptr %45, null
  br i1 %46, label %47, label %63

47:                                               ; preds = %43
  %48 = load ptr, ptr %6, align 8, !tbaa !25
  %49 = call i32 @OSSL_PARAM_get_uint64(ptr noundef %48, ptr noundef %8)
  %50 = icmp ne i32 %49, 0
  br i1 %50, label %51, label %58

51:                                               ; preds = %47
  %52 = load i64, ptr %8, align 8, !tbaa !24
  %53 = icmp ule i64 %52, 1
  br i1 %53, label %58, label %54

54:                                               ; preds = %51
  %55 = load i64, ptr %8, align 8, !tbaa !24
  %56 = call i32 @is_power_of_two(i64 noundef %55)
  %57 = icmp ne i32 %56, 0
  br i1 %57, label %59, label %58

58:                                               ; preds = %54, %51, %47
  store i32 0, ptr %3, align 4
  store i32 1, ptr %9, align 4
  br label %135

59:                                               ; preds = %54
  %60 = load i64, ptr %8, align 8, !tbaa !24
  %61 = load ptr, ptr %7, align 8, !tbaa !3
  %62 = getelementptr inbounds nuw %struct.KDF_SCRYPT, ptr %61, i32 0, i32 6
  store i64 %60, ptr %62, align 8, !tbaa !19
  br label %63

63:                                               ; preds = %59, %43
  %64 = load ptr, ptr %5, align 8, !tbaa !25
  %65 = call ptr @OSSL_PARAM_locate_const(ptr noundef %64, ptr noundef @.str.5)
  store ptr %65, ptr %6, align 8, !tbaa !25
  %66 = icmp ne ptr %65, null
  br i1 %66, label %67, label %79

67:                                               ; preds = %63
  %68 = load ptr, ptr %6, align 8, !tbaa !25
  %69 = call i32 @OSSL_PARAM_get_uint64(ptr noundef %68, ptr noundef %8)
  %70 = icmp ne i32 %69, 0
  br i1 %70, label %71, label %74

71:                                               ; preds = %67
  %72 = load i64, ptr %8, align 8, !tbaa !24
  %73 = icmp ult i64 %72, 1
  br i1 %73, label %74, label %75

74:                                               ; preds = %71, %67
  store i32 0, ptr %3, align 4
  store i32 1, ptr %9, align 4
  br label %135

75:                                               ; preds = %71
  %76 = load i64, ptr %8, align 8, !tbaa !24
  %77 = load ptr, ptr %7, align 8, !tbaa !3
  %78 = getelementptr inbounds nuw %struct.KDF_SCRYPT, ptr %77, i32 0, i32 7
  store i64 %76, ptr %78, align 8, !tbaa !20
  br label %79

79:                                               ; preds = %75, %63
  %80 = load ptr, ptr %5, align 8, !tbaa !25
  %81 = call ptr @OSSL_PARAM_locate_const(ptr noundef %80, ptr noundef @.str.6)
  store ptr %81, ptr %6, align 8, !tbaa !25
  %82 = icmp ne ptr %81, null
  br i1 %82, label %83, label %95

83:                                               ; preds = %79
  %84 = load ptr, ptr %6, align 8, !tbaa !25
  %85 = call i32 @OSSL_PARAM_get_uint64(ptr noundef %84, ptr noundef %8)
  %86 = icmp ne i32 %85, 0
  br i1 %86, label %87, label %90

87:                                               ; preds = %83
  %88 = load i64, ptr %8, align 8, !tbaa !24
  %89 = icmp ult i64 %88, 1
  br i1 %89, label %90, label %91

90:                                               ; preds = %87, %83
  store i32 0, ptr %3, align 4
  store i32 1, ptr %9, align 4
  br label %135

91:                                               ; preds = %87
  %92 = load i64, ptr %8, align 8, !tbaa !24
  %93 = load ptr, ptr %7, align 8, !tbaa !3
  %94 = getelementptr inbounds nuw %struct.KDF_SCRYPT, ptr %93, i32 0, i32 8
  store i64 %92, ptr %94, align 8, !tbaa !21
  br label %95

95:                                               ; preds = %91, %79
  %96 = load ptr, ptr %5, align 8, !tbaa !25
  %97 = call ptr @OSSL_PARAM_locate_const(ptr noundef %96, ptr noundef @.str.7)
  store ptr %97, ptr %6, align 8, !tbaa !25
  %98 = icmp ne ptr %97, null
  br i1 %98, label %99, label %111

99:                                               ; preds = %95
  %100 = load ptr, ptr %6, align 8, !tbaa !25
  %101 = call i32 @OSSL_PARAM_get_uint64(ptr noundef %100, ptr noundef %8)
  %102 = icmp ne i32 %101, 0
  br i1 %102, label %103, label %106

103:                                              ; preds = %99
  %104 = load i64, ptr %8, align 8, !tbaa !24
  %105 = icmp ult i64 %104, 1
  br i1 %105, label %106, label %107

106:                                              ; preds = %103, %99
  store i32 0, ptr %3, align 4
  store i32 1, ptr %9, align 4
  br label %135

107:                                              ; preds = %103
  %108 = load i64, ptr %8, align 8, !tbaa !24
  %109 = load ptr, ptr %7, align 8, !tbaa !3
  %110 = getelementptr inbounds nuw %struct.KDF_SCRYPT, ptr %109, i32 0, i32 9
  store i64 %108, ptr %110, align 8, !tbaa !22
  br label %111

111:                                              ; preds = %107, %95
  %112 = load ptr, ptr %5, align 8, !tbaa !25
  %113 = call ptr @OSSL_PARAM_locate_const(ptr noundef %112, ptr noundef @.str.8)
  store ptr %113, ptr %6, align 8, !tbaa !25
  %114 = load ptr, ptr %6, align 8, !tbaa !25
  %115 = icmp ne ptr %114, null
  br i1 %115, label %116, label %134

116:                                              ; preds = %111
  %117 = load ptr, ptr %6, align 8, !tbaa !25
  %118 = getelementptr inbounds nuw %struct.ossl_param_st, ptr %117, i32 0, i32 1
  %119 = load i32, ptr %118, align 8, !tbaa !27
  %120 = icmp ne i32 %119, 4
  br i1 %120, label %132, label %121

121:                                              ; preds = %116
  %122 = load ptr, ptr %7, align 8, !tbaa !3
  %123 = load ptr, ptr %6, align 8, !tbaa !25
  %124 = getelementptr inbounds nuw %struct.ossl_param_st, ptr %123, i32 0, i32 2
  %125 = load ptr, ptr %124, align 8, !tbaa !30
  %126 = call i32 @set_property_query(ptr noundef %122, ptr noundef %125)
  %127 = icmp ne i32 %126, 0
  br i1 %127, label %128, label %132

128:                                              ; preds = %121
  %129 = load ptr, ptr %7, align 8, !tbaa !3
  %130 = call i32 @set_digest(ptr noundef %129)
  %131 = icmp ne i32 %130, 0
  br i1 %131, label %133, label %132

132:                                              ; preds = %128, %121, %116
  store i32 0, ptr %3, align 4
  store i32 1, ptr %9, align 4
  br label %135

133:                                              ; preds = %128
  br label %134

134:                                              ; preds = %133, %111
  store i32 1, ptr %3, align 4
  store i32 1, ptr %9, align 4
  br label %135

135:                                              ; preds = %134, %132, %106, %90, %74, %58, %41, %27, %14
  call void @llvm.lifetime.end.p0(i64 8, ptr %8) #5
  call void @llvm.lifetime.end.p0(i64 8, ptr %7) #5
  call void @llvm.lifetime.end.p0(i64 8, ptr %6) #5
  %136 = load i32, ptr %3, align 4
  ret i32 %136
}