; Function Attrs: nounwind uwtable
define internal range(i32 0, 2) i32 @kdf_scrypt_set_ctx_params(ptr noundef %0, ptr noundef %1) #0 {
  %3 = alloca i64, align 8
  call void @llvm.lifetime.start.p0(i64 8, ptr nonnull %3) #7
  %4 = icmp eq ptr %1, null
  br i1 %4, label %ossl_param_is_empty.exit.thread, label %ossl_param_is_empty.exit

ossl_param_is_empty.exit:                         ; preds = %2
  %5 = load ptr, ptr %1, align 8, !tbaa !32
  %.not = icmp eq ptr %5, null
  br i1 %.not, label %ossl_param_is_empty.exit.thread, label %6

6:                                                ; preds = %ossl_param_is_empty.exit
  %7 = tail call ptr @OSSL_PARAM_locate_const(ptr noundef nonnull %1, ptr noundef nonnull @.str.2) #7
  %.not46 = icmp eq ptr %7, null
  br i1 %.not46, label %scrypt_set_membuf.exit, label %8

8:                                                ; preds = %6
  %9 = getelementptr inbounds nuw i8, ptr %0, i64 16
  %10 = getelementptr inbounds nuw i8, ptr %0, i64 24
  %11 = load ptr, ptr %9, align 8, !tbaa !34
  %12 = load i64, ptr %10, align 8, !tbaa !35
  tail call void @CRYPTO_clear_free(ptr noundef %11, i64 noundef %12, ptr noundef nonnull @.str, i32 noundef 148) #7
  %13 = getelementptr inbounds nuw i8, ptr %7, i64 24
  tail call void @llvm.memset.p0.i64(ptr noundef nonnull align 8 dereferenceable(16) %9, i8 0, i64 16, i1 false)
  %14 = load i64, ptr %13, align 8, !tbaa !36
  %15 = icmp eq i64 %14, 0
  br i1 %15, label %16, label %19

16:                                               ; preds = %8
  %17 = tail call noalias ptr @CRYPTO_malloc(i64 noundef 1, ptr noundef nonnull @.str, i32 noundef 153) #7
  store ptr %17, ptr %9, align 8, !tbaa !34
  %18 = icmp eq ptr %17, null
  br i1 %18, label %ossl_param_is_empty.exit.thread, label %scrypt_set_membuf.exit

19:                                               ; preds = %8
  %20 = getelementptr inbounds nuw i8, ptr %7, i64 16
  %21 = load ptr, ptr %20, align 8, !tbaa !37
  %.not.i = icmp eq ptr %21, null
  br i1 %.not.i, label %scrypt_set_membuf.exit, label %22

22:                                               ; preds = %19
  %23 = tail call i32 @OSSL_PARAM_get_octet_string(ptr noundef nonnull %7, ptr noundef nonnull %9, i64 noundef 0, ptr noundef nonnull %10) #7
  %.not10.i = icmp eq i32 %23, 0
  br i1 %.not10.i, label %ossl_param_is_empty.exit.thread, label %scrypt_set_membuf.exit

scrypt_set_membuf.exit:                           ; preds = %22, %19, %16, %6
  %24 = tail call ptr @OSSL_PARAM_locate_const(ptr noundef nonnull %1, ptr noundef nonnull @.str.3) #7
  %.not48 = icmp eq ptr %24, null
  br i1 %.not48, label %scrypt_set_membuf.exit62, label %25

25:                                               ; preds = %scrypt_set_membuf.exit
  %26 = getelementptr inbounds nuw i8, ptr %0, i64 32
  %27 = getelementptr inbounds nuw i8, ptr %0, i64 40
  %28 = load ptr, ptr %26, align 8, !tbaa !34
  %29 = load i64, ptr %27, align 8, !tbaa !35
  tail call void @CRYPTO_clear_free(ptr noundef %28, i64 noundef %29, ptr noundef nonnull @.str, i32 noundef 148) #7
  %30 = getelementptr inbounds nuw i8, ptr %24, i64 24
  tail call void @llvm.memset.p0.i64(ptr noundef nonnull align 8 dereferenceable(16) %26, i8 0, i64 16, i1 false)
  %31 = load i64, ptr %30, align 8, !tbaa !36
  %32 = icmp eq i64 %31, 0
  br i1 %32, label %33, label %36

33:                                               ; preds = %25
  %34 = tail call noalias ptr @CRYPTO_malloc(i64 noundef 1, ptr noundef nonnull @.str, i32 noundef 153) #7
  store ptr %34, ptr %26, align 8, !tbaa !34
  %35 = icmp eq ptr %34, null
  br i1 %35, label %ossl_param_is_empty.exit.thread, label %scrypt_set_membuf.exit62

36:                                               ; preds = %25
  %37 = getelementptr inbounds nuw i8, ptr %24, i64 16
  %38 = load ptr, ptr %37, align 8, !tbaa !37
  %.not.i59 = icmp eq ptr %38, null
  br i1 %.not.i59, label %scrypt_set_membuf.exit62, label %39

39:                                               ; preds = %36
  %40 = tail call i32 @OSSL_PARAM_get_octet_string(ptr noundef nonnull %24, ptr noundef nonnull %26, i64 noundef 0, ptr noundef nonnull %27) #7
  %.not10.i60 = icmp eq i32 %40, 0
  br i1 %.not10.i60, label %ossl_param_is_empty.exit.thread, label %scrypt_set_membuf.exit62

scrypt_set_membuf.exit62:                         ; preds = %39, %36, %33, %scrypt_set_membuf.exit
  %41 = tail call ptr @OSSL_PARAM_locate_const(ptr noundef nonnull %1, ptr noundef nonnull @.str.4) #7
  %.not50 = icmp eq ptr %41, null
  br i1 %.not50, label %51, label %42

42:                                               ; preds = %scrypt_set_membuf.exit62
  %43 = call i32 @OSSL_PARAM_get_uint64(ptr noundef nonnull %41, ptr noundef nonnull %3) #7
  %44 = icmp eq i32 %43, 0
  %45 = load i64, ptr %3, align 8
  %46 = icmp ult i64 %45, 2
  %or.cond = select i1 %44, i1 true, i1 %46
  %47 = call range(i64 1, 65) i64 @llvm.ctpop.i64(i64 range(i64 2, 0) %45)
  %48 = icmp samesign ugt i64 %47, 1
  %or.cond69 = select i1 %or.cond, i1 true, i1 %48
  br i1 %or.cond69, label %ossl_param_is_empty.exit.thread, label %49

49:                                               ; preds = %42
  %50 = getelementptr inbounds nuw i8, ptr %0, i64 48
  store i64 %45, ptr %50, align 8, !tbaa !12
  br label %51

51:                                               ; preds = %49, %scrypt_set_membuf.exit62
  %52 = call ptr @OSSL_PARAM_locate_const(ptr noundef nonnull %1, ptr noundef nonnull @.str.5) #7
  %.not52 = icmp eq ptr %52, null
  br i1 %.not52, label %60, label %53

53:                                               ; preds = %51
  %54 = call i32 @OSSL_PARAM_get_uint64(ptr noundef nonnull %52, ptr noundef nonnull %3) #7
  %55 = icmp eq i32 %54, 0
  %56 = load i64, ptr %3, align 8
  %57 = icmp eq i64 %56, 0
  %or.cond3 = select i1 %55, i1 true, i1 %57
  br i1 %or.cond3, label %ossl_param_is_empty.exit.thread, label %58

58:                                               ; preds = %53
  %59 = getelementptr inbounds nuw i8, ptr %0, i64 56
  store i64 %56, ptr %59, align 8, !tbaa !13
  br label %60

60:                                               ; preds = %58, %51
  %61 = call ptr @OSSL_PARAM_locate_const(ptr noundef nonnull %1, ptr noundef nonnull @.str.6) #7
  %.not53 = icmp eq ptr %61, null
  br i1 %.not53, label %69, label %62

62:                                               ; preds = %60
  %63 = call i32 @OSSL_PARAM_get_uint64(ptr noundef nonnull %61, ptr noundef nonnull %3) #7
  %64 = icmp eq i32 %63, 0
  %65 = load i64, ptr %3, align 8
  %66 = icmp eq i64 %65, 0
  %or.cond5 = select i1 %64, i1 true, i1 %66
  br i1 %or.cond5, label %ossl_param_is_empty.exit.thread, label %67

67:                                               ; preds = %62
  %68 = getelementptr inbounds nuw i8, ptr %0, i64 64
  store i64 %65, ptr %68, align 8, !tbaa !14
  br label %69

69:                                               ; preds = %67, %60
  %70 = call ptr @OSSL_PARAM_locate_const(ptr noundef nonnull %1, ptr noundef nonnull @.str.7) #7
  %.not54 = icmp eq ptr %70, null
  br i1 %.not54, label %78, label %71

71:                                               ; preds = %69
  %72 = call i32 @OSSL_PARAM_get_uint64(ptr noundef nonnull %70, ptr noundef nonnull %3) #7
  %73 = icmp eq i32 %72, 0
  %74 = load i64, ptr %3, align 8
  %75 = icmp eq i64 %74, 0
  %or.cond7 = select i1 %73, i1 true, i1 %75
  br i1 %or.cond7, label %ossl_param_is_empty.exit.thread, label %76

76:                                               ; preds = %71
  %77 = getelementptr inbounds nuw i8, ptr %0, i64 72
  store i64 %74, ptr %77, align 8, !tbaa !15
  br label %78

78:                                               ; preds = %76, %69
  %79 = call ptr @OSSL_PARAM_locate_const(ptr noundef nonnull %1, ptr noundef nonnull @.str.8) #7
  %.not55 = icmp eq ptr %79, null
  br i1 %.not55, label %89, label %80

80:                                               ; preds = %78
  %81 = getelementptr inbounds nuw i8, ptr %79, i64 8
  %82 = load i32, ptr %81, align 8, !tbaa !38
  %.not56 = icmp eq i32 %82, 4
  br i1 %.not56, label %83, label %ossl_param_is_empty.exit.thread

83:                                               ; preds = %80
  %84 = getelementptr inbounds nuw i8, ptr %79, i64 16
  %85 = load ptr, ptr %84, align 8, !tbaa !37
  %86 = call fastcc i32 @set_property_query(ptr noundef %0, ptr noundef %85)
  %.not57 = icmp eq i32 %86, 0
  br i1 %.not57, label %ossl_param_is_empty.exit.thread, label %87

87:                                               ; preds = %83
  %88 = call fastcc i32 @set_digest(ptr noundef %0)
  %.not58 = icmp eq i32 %88, 0
  br i1 %.not58, label %ossl_param_is_empty.exit.thread, label %89

89:                                               ; preds = %87, %78
  br label %ossl_param_is_empty.exit.thread

ossl_param_is_empty.exit.thread:                  ; preds = %39, %33, %22, %16, %2, %80, %83, %87, %71, %62, %53, %42, %ossl_param_is_empty.exit, %89
  %.0 = phi i32 [ 1, %89 ], [ 1, %ossl_param_is_empty.exit ], [ 0, %42 ], [ 0, %53 ], [ 0, %62 ], [ 0, %71 ], [ 0, %87 ], [ 0, %83 ], [ 0, %80 ], [ 1, %2 ], [ 0, %16 ], [ 0, %22 ], [ 0, %33 ], [ 0, %39 ]
  call void @llvm.lifetime.end.p0(i64 8, ptr nonnull %3) #7
  ret i32 %.0
}